; Function Attrs: nounwind sspstrong uwtable
define internal i64 @pack_unpack(ptr readnone captures(none) %0, i64 noundef %1, i64 noundef %2, i64 noundef %3) #0 {
  %5 = tail call i32 @rb_block_given_p() #13
  %6 = and i64 %3, 1
  %.not.i = icmp eq i64 %6, 0
  br i1 %.not.i, label %9, label %7

7:                                                ; preds = %4
  %8 = ashr i64 %3, 1
  br label %rb_num2long_inline.exit

9:                                                ; preds = %4
  %10 = tail call i64 @rb_num2long(i64 noundef %3) #13
  br label %rb_num2long_inline.exit

rb_num2long_inline.exit:                          ; preds = %7, %9
  %.0.i = phi i64 [ %8, %7 ], [ %10, %9 ]
  %.not = icmp ne i32 %5, 0
  %11 = zext i1 %.not to i32
  %12 = tail call fastcc i64 @pack_unpack_internal(i64 noundef %1, i64 noundef %2, i32 noundef %11, i64 noundef %.0.i)
  ret i64 %12
}